target datalayout = "e-m:e-p270:32:32-p271:32:32-p272:64:64-i64:64-i128:128-f80:128-n8:16:32:64-S128"
target triple = "x86_64-pc-linux-gnu"

%struct.jpeg_compress_struct = type { ptr, ptr, ptr, ptr, i32, i32, ptr, i32, i32, i32, i32, double, i32, i32, i32, ptr, [4 x ptr], [4 x ptr], [4 x ptr], [16 x i8], [16 x i8], [16 x i8], i32, ptr, i32, i32, i32, i32, i32, i32, i32, i32, i32, i8, i8, i8, i16, i16, i32, i32, i32, i32, i32, i32, i32, [4 x ptr], i32, i32, i32, [10 x i32], i32, i32, i32, i32, ptr, ptr, ptr, ptr, ptr, ptr, ptr, ptr, ptr, ptr, i32 }
%struct.jpeg_memory_mgr = type { ptr, ptr, ptr, ptr, ptr, ptr, ptr, ptr, ptr, ptr, ptr, i64, i64 }
%struct.jpeg_destination_mgr = type { ptr, i64, ptr, ptr, ptr }
%struct.jpeg_error_mgr = type { ptr, ptr, ptr, ptr, ptr, i32, %union.anon, i32, i64, ptr, i32, ptr, i32, i32 }
%union.anon = type { [8 x i32], [48 x i8] }
%struct.my_mem_destination_mgr = type { %struct.jpeg_destination_mgr, ptr, ptr, ptr, ptr, i64 }

; Function Attrs: nounwind uwtable
define void @jpeg_mem_dest(ptr noundef %0, ptr noundef %1, ptr noundef %2) #0 {
  %4 = alloca ptr, align 8
  %5 = alloca ptr, align 8
  %6 = alloca ptr, align 8
  %7 = alloca ptr, align 8
  store ptr %0, ptr %4, align 8, !tbaa !3
  store ptr %1, ptr %5, align 8, !tbaa !50
  store ptr %2, ptr %6, align 8, !tbaa !51
  call void @llvm.lifetime.start.p0(i64 8, ptr %7) #6
  %8 = load ptr, ptr %5, align 8, !tbaa !50
  %9 = icmp eq ptr %8, null
  br i1 %9, label %13, label %10

10:                                               ; preds = %3
  %11 = load ptr, ptr %6, align 8, !tbaa !51
  %12 = icmp eq ptr %11, null
  br i1 %12, label %13, label %24

13:                                               ; preds = %10, %3
  %14 = load ptr, ptr %4, align 8, !tbaa !3
  %15 = getelementptr inbounds nuw %struct.jpeg_compress_struct, ptr %14, i32 0, i32 0
  %16 = load ptr, ptr %15, align 8, !tbaa !35
  %17 = getelementptr inbounds nuw %struct.jpeg_error_mgr, ptr %16, i32 0, i32 5
  store i32 23, ptr %17, align 8, !tbaa !36
  %18 = load ptr, ptr %4, align 8, !tbaa !3
  %19 = getelementptr inbounds nuw %struct.jpeg_compress_struct, ptr %18, i32 0, i32 0
  %20 = load ptr, ptr %19, align 8, !tbaa !35
  %21 = getelementptr inbounds nuw %struct.jpeg_error_mgr, ptr %20, i32 0, i32 0
  %22 = load ptr, ptr %21, align 8, !tbaa !39
  %23 = load ptr, ptr %4, align 8, !tbaa !3
  call void %22(ptr noundef %23)
  br label %24

24:                                               ; preds = %13, %10
  %25 = load ptr, ptr %4, align 8, !tbaa !3
  %26 = getelementptr inbounds nuw %struct.jpeg_compress_struct, ptr %25, i32 0, i32 6
  %27 = load ptr, ptr %26, align 8, !tbaa !10
  %28 = icmp eq ptr %27, null
  br i1 %28, label %29, label %39

29:                                               ; preds = %24
  %30 = load ptr, ptr %4, align 8, !tbaa !3
  %31 = getelementptr inbounds nuw %struct.jpeg_compress_struct, ptr %30, i32 0, i32 1
  %32 = load ptr, ptr %31, align 8, !tbaa !28
  %33 = getelementptr inbounds nuw %struct.jpeg_memory_mgr, ptr %32, i32 0, i32 0
  %34 = load ptr, ptr %33, align 8, !tbaa !29
  %35 = load ptr, ptr %4, align 8, !tbaa !3
  %36 = call ptr %34(ptr noundef %35, i32 noundef 0, i64 noundef 80)
  %37 = load ptr, ptr %4, align 8, !tbaa !3
  %38 = getelementptr inbounds nuw %struct.jpeg_compress_struct, ptr %37, i32 0, i32 6
  store ptr %36, ptr %38, align 8, !tbaa !10
  br label %58

39:                                               ; preds = %24
  %40 = load ptr, ptr %4, align 8, !tbaa !3
  %41 = getelementptr inbounds nuw %struct.jpeg_compress_struct, ptr %40, i32 0, i32 6
  %42 = load ptr, ptr %41, align 8, !tbaa !10
  %43 = getelementptr inbounds nuw %struct.jpeg_destination_mgr, ptr %42, i32 0, i32 2
  %44 = load ptr, ptr %43, align 8, !tbaa !32
  %45 = icmp ne ptr %44, @init_mem_destination
  br i1 %45, label %46, label %57

46:                                               ; preds = %39
  %47 = load ptr, ptr %4, align 8, !tbaa !3
  %48 = getelementptr inbounds nuw %struct.jpeg_compress_struct, ptr %47, i32 0, i32 0
  %49 = load ptr, ptr %48, align 8, !tbaa !35
  %50 = getelementptr inbounds nuw %struct.jpeg_error_mgr, ptr %49, i32 0, i32 5
  store i32 23, ptr %50, align 8, !tbaa !36
  %51 = load ptr, ptr %4, align 8, !tbaa !3
  %52 = getelementptr inbounds nuw %struct.jpeg_compress_struct, ptr %51, i32 0, i32 0
  %53 = load ptr, ptr %52, align 8, !tbaa !35
  %54 = getelementptr inbounds nuw %struct.jpeg_error_mgr, ptr %53, i32 0, i32 0
  %55 = load ptr, ptr %54, align 8, !tbaa !39
  %56 = load ptr, ptr %4, align 8, !tbaa !3
  call void %55(ptr noundef %56)
  br label %57

57:                                               ; preds = %46, %39
  br label %58

58:                                               ; preds = %57, %29
  %59 = load ptr, ptr %4, align 8, !tbaa !3
  %60 = getelementptr inbounds nuw %struct.jpeg_compress_struct, ptr %59, i32 0, i32 6
  %61 = load ptr, ptr %60, align 8, !tbaa !10
  store ptr %61, ptr %7, align 8, !tbaa !40
  %62 = load ptr, ptr %7, align 8, !tbaa !40
  %63 = getelementptr inbounds nuw %struct.my_mem_destination_mgr, ptr %62, i32 0, i32 0
  %64 = getelementptr inbounds nuw %struct.jpeg_destination_mgr, ptr %63, i32 0, i32 2
  store ptr @init_mem_destination, ptr %64, align 8, !tbaa !53
  %65 = load ptr, ptr %7, align 8, !tbaa !40
  %66 = getelementptr inbounds nuw %struct.my_mem_destination_mgr, ptr %65, i32 0, i32 0
  %67 = getelementptr inbounds nuw %struct.jpeg_destination_mgr, ptr %66, i32 0, i32 3
  store ptr @empty_mem_output_buffer, ptr %67, align 8, !tbaa !55
  %68 = load ptr, ptr %7, align 8, !tbaa !40
  %69 = getelementptr inbounds nuw %struct.my_mem_destination_mgr, ptr %68, i32 0, i32 0
  %70 = getelementptr inbounds nuw %struct.jpeg_destination_mgr, ptr %69, i32 0, i32 4
  store ptr @term_mem_destination, ptr %70, align 8, !tbaa !56
  %71 = load ptr, ptr %5, align 8, !tbaa !50
  %72 = load ptr, ptr %7, align 8, !tbaa !40
  %73 = getelementptr inbounds nuw %struct.my_mem_destination_mgr, ptr %72, i32 0, i32 1
  store ptr %71, ptr %73, align 8, !tbaa !57
  %74 = load ptr, ptr %6, align 8, !tbaa !51
  %75 = load ptr, ptr %7, align 8, !tbaa !40
  %76 = getelementptr inbounds nuw %struct.my_mem_destination_mgr, ptr %75, i32 0, i32 2
  store ptr %74, ptr %76, align 8, !tbaa !58
  %77 = load ptr, ptr %7, align 8, !tbaa !40
  %78 = getelementptr inbounds nuw %struct.my_mem_destination_mgr, ptr %77, i32 0, i32 3
  store ptr null, ptr %78, align 8, !tbaa !59
  %79 = load ptr, ptr %5, align 8, !tbaa !50
  %80 = load ptr, ptr %79, align 8, !tbaa !60
  %81 = icmp eq ptr %80, null
  br i1 %81, label %86, label %82

82:                                               ; preds = %58
  %83 = load ptr, ptr %6, align 8, !tbaa !51
  %84 = load i64, ptr %83, align 8, !tbaa !49
  %85 = icmp eq i64 %84, 0
  br i1 %85, label %86, label %113

86:                                               ; preds = %82, %58
  %87 = call noalias ptr @malloc(i64 noundef 4096) #7
  %88 = load ptr, ptr %5, align 8, !tbaa !50
  store ptr %87, ptr %88, align 8, !tbaa !60
  %89 = load ptr, ptr %7, align 8, !tbaa !40
  %90 = getelementptr inbounds nuw %struct.my_mem_destination_mgr, ptr %89, i32 0, i32 3
  store ptr %87, ptr %90, align 8, !tbaa !59
  %91 = load ptr, ptr %7, align 8, !tbaa !40
  %92 = getelementptr inbounds nuw %struct.my_mem_destination_mgr, ptr %91, i32 0, i32 3
  %93 = load ptr, ptr %92, align 8, !tbaa !59
  %94 = icmp eq ptr %93, null
  br i1 %94, label %95, label %111

95:                                               ; preds = %86
  %96 = load ptr, ptr %4, align 8, !tbaa !3
  %97 = getelementptr inbounds nuw %struct.jpeg_compress_struct, ptr %96, i32 0, i32 0
  %98 = load ptr, ptr %97, align 8, !tbaa !35
  %99 = getelementptr inbounds nuw %struct.jpeg_error_mgr, ptr %98, i32 0, i32 5
  store i32 54, ptr %99, align 8, !tbaa !36
  %100 = load ptr, ptr %4, align 8, !tbaa !3
  %101 = getelementptr inbounds nuw %struct.jpeg_compress_struct, ptr %100, i32 0, i32 0
  %102 = load ptr, ptr %101, align 8, !tbaa !35
  %103 = getelementptr inbounds nuw %struct.jpeg_error_mgr, ptr %102, i32 0, i32 6
  %104 = getelementptr inbounds [8 x i32], ptr %103, i64 0, i64 0
  store i32 10, ptr %104, align 4, !tbaa !61
  %105 = load ptr, ptr %4, align 8, !tbaa !3
  %106 = getelementptr inbounds nuw %struct.jpeg_compress_struct, ptr %105, i32 0, i32 0
  %107 = load ptr, ptr %106, align 8, !tbaa !35
  %108 = getelementptr inbounds nuw %struct.jpeg_error_mgr, ptr %107, i32 0, i32 0
  %109 = load ptr, ptr %108, align 8, !tbaa !39
  %110 = load ptr, ptr %4, align 8, !tbaa !3
  call void %109(ptr noundef %110)
  br label %111

111:                                              ; preds = %95, %86
  %112 = load ptr, ptr %6, align 8, !tbaa !51
  store i64 4096, ptr %112, align 8, !tbaa !49
  br label %113

113:                                              ; preds = %111, %82
  %114 = load ptr, ptr %5, align 8, !tbaa !50
  %115 = load ptr, ptr %114, align 8, !tbaa !60
  %116 = load ptr, ptr %7, align 8, !tbaa !40
  %117 = getelementptr inbounds nuw %struct.my_mem_destination_mgr, ptr %116, i32 0, i32 4
  store ptr %115, ptr %117, align 8, !tbaa !62
  %118 = load ptr, ptr %7, align 8, !tbaa !40
  %119 = getelementptr inbounds nuw %struct.my_mem_destination_mgr, ptr %118, i32 0, i32 0
  %120 = getelementptr inbounds nuw %struct.jpeg_destination_mgr, ptr %119, i32 0, i32 0
  store ptr %115, ptr %120, align 8, !tbaa !63
  %121 = load ptr, ptr %6, align 8, !tbaa !51
  %122 = load i64, ptr %121, align 8, !tbaa !49
  %123 = load ptr, ptr %7, align 8, !tbaa !40
  %124 = getelementptr inbounds nuw %struct.my_mem_destination_mgr, ptr %123, i32 0, i32 5
  store i64 %122, ptr %124, align 8, !tbaa !64
  %125 = load ptr, ptr %7, align 8, !tbaa !40
  %126 = getelementptr inbounds nuw %struct.my_mem_destination_mgr, ptr %125, i32 0, i32 0
  %127 = getelementptr inbounds nuw %struct.jpeg_destination_mgr, ptr %126, i32 0, i32 1
  store i64 %122, ptr %127, align 8, !tbaa !65
  call void @llvm.lifetime.end.p0(i64 8, ptr %7) #6
  ret void
}