; Function Attrs: nounwind uwtable
define void @jpeg_mem_dest(ptr noundef %0, ptr noundef %1, ptr noundef %2) local_unnamed_addr #0 {
  %4 = icmp eq ptr %1, null
  %5 = icmp eq ptr %2, null
  %or.cond = or i1 %4, %5
  br i1 %or.cond, label %6, label %10

6:                                                ; preds = %3
  %7 = load ptr, ptr %0, align 8, !tbaa !31
  %8 = getelementptr inbounds nuw i8, ptr %7, i64 40
  store i32 23, ptr %8, align 8, !tbaa !32
  %9 = load ptr, ptr %7, align 8, !tbaa !35
  tail call void %9(ptr noundef nonnull %0) #8
  br label %10

10:                                               ; preds = %3, %6
  %11 = getelementptr inbounds nuw i8, ptr %0, i64 40
  %12 = load ptr, ptr %11, align 8, !tbaa !3
  %13 = icmp eq ptr %12, null
  br i1 %13, label %14, label %19

14:                                               ; preds = %10
  %15 = getelementptr inbounds nuw i8, ptr %0, i64 8
  %16 = load ptr, ptr %15, align 8, !tbaa !24
  %17 = load ptr, ptr %16, align 8, !tbaa !25
  %18 = tail call ptr %17(ptr noundef nonnull %0, i32 noundef 0, i64 noundef 80) #8
  store ptr %18, ptr %11, align 8, !tbaa !3
  br label %26

19:                                               ; preds = %10
  %20 = getelementptr inbounds nuw i8, ptr %12, i64 16
  %21 = load ptr, ptr %20, align 8, !tbaa !28
  %.not = icmp eq ptr %21, @init_mem_destination
  br i1 %.not, label %26, label %22

22:                                               ; preds = %19
  %23 = load ptr, ptr %0, align 8, !tbaa !31
  %24 = getelementptr inbounds nuw i8, ptr %23, i64 40
  store i32 23, ptr %24, align 8, !tbaa !32
  %25 = load ptr, ptr %23, align 8, !tbaa !35
  tail call void %25(ptr noundef nonnull %0) #8
  %.pre = load ptr, ptr %11, align 8, !tbaa !3
  br label %26

26:                                               ; preds = %19, %22, %14
  %27 = phi ptr [ %12, %19 ], [ %.pre, %22 ], [ %18, %14 ]
  %28 = getelementptr inbounds nuw i8, ptr %27, i64 16
  store ptr @init_mem_destination, ptr %28, align 8, !tbaa !45
  %29 = getelementptr inbounds nuw i8, ptr %27, i64 24
  store ptr @empty_mem_output_buffer, ptr %29, align 8, !tbaa !48
  %30 = getelementptr inbounds nuw i8, ptr %27, i64 32
  store ptr @term_mem_destination, ptr %30, align 8, !tbaa !49
  %31 = getelementptr inbounds nuw i8, ptr %27, i64 40
  store ptr %1, ptr %31, align 8, !tbaa !50
  %32 = getelementptr inbounds nuw i8, ptr %27, i64 48
  store ptr %2, ptr %32, align 8, !tbaa !51
  %33 = getelementptr inbounds nuw i8, ptr %27, i64 56
  store ptr null, ptr %33, align 8, !tbaa !52
  %34 = load ptr, ptr %1, align 8, !tbaa !53
  %35 = icmp eq ptr %34, null
  br i1 %35, label %39, label %36

36:                                               ; preds = %26
  %37 = load i64, ptr %2, align 8, !tbaa !54
  %38 = icmp eq i64 %37, 0
  br i1 %38, label %39, label %49

39:                                               ; preds = %36, %26
  %40 = tail call noalias dereferenceable_or_null(4096) ptr @malloc(i64 noundef 4096) #9
  store ptr %40, ptr %1, align 8, !tbaa !53
  store ptr %40, ptr %33, align 8, !tbaa !52
  %41 = icmp eq ptr %40, null
  br i1 %41, label %42, label %48

42:                                               ; preds = %39
  %43 = load ptr, ptr %0, align 8, !tbaa !31
  %44 = getelementptr inbounds nuw i8, ptr %43, i64 40
  store i32 54, ptr %44, align 8, !tbaa !32
  %45 = getelementptr inbounds nuw i8, ptr %43, i64 44
  store i32 10, ptr %45, align 4, !tbaa !55
  %46 = load ptr, ptr %0, align 8, !tbaa !31
  %47 = load ptr, ptr %46, align 8, !tbaa !35
  tail call void %47(ptr noundef nonnull %0) #8
  br label %48

48:                                               ; preds = %42, %39
  store i64 4096, ptr %2, align 8, !tbaa !54
  %.pre39 = load ptr, ptr %1, align 8, !tbaa !53
  br label %49

49:                                               ; preds = %48, %36
  %50 = phi i64 [ 4096, %48 ], [ %37, %36 ]
  %51 = phi ptr [ %.pre39, %48 ], [ %34, %36 ]
  %52 = getelementptr inbounds nuw i8, ptr %27, i64 64
  store ptr %51, ptr %52, align 8, !tbaa !56
  store ptr %51, ptr %27, align 8, !tbaa !57
  %53 = getelementptr inbounds nuw i8, ptr %27, i64 72
  store i64 %50, ptr %53, align 8, !tbaa !58
  %54 = getelementptr inbounds nuw i8, ptr %27, i64 8
  store i64 %50, ptr %54, align 8, !tbaa !59
  ret void
}